	.file	"arithmetic.c"
	.text
.Ltext0:
	.file 0 "/mnt/c/Users/saira/Desktop/CYBR 688 Software Reverse Engineering/Week 3/Lab03_Linux_amd64" "arithmetic.c"
	.globl	add
	.type	add, @function
add:
.LFB0:
	.file 1 "arithmetic.c"
	.loc 1 2 23
	.cfi_startproc
	endbr64
	pushq	%rbp
	.cfi_def_cfa_offset 16
	.cfi_offset 6, -16
	movq	%rsp, %rbp
	.cfi_def_cfa_register 6
	movl	%edi, -4(%rbp)
	movl	%esi, -8(%rbp)
	.loc 1 3 12
	movl	-4(%rbp), %edx
	movl	-8(%rbp), %eax
	addl	%edx, %eax
	.loc 1 4 1
	popq	%rbp
	.cfi_def_cfa 7, 8
	ret
	.cfi_endproc
.LFE0:
	.size	add, .-add
	.globl	sub
	.type	sub, @function
sub:
.LFB1:
	.loc 1 6 23
	.cfi_startproc
	endbr64
	pushq	%rbp
	.cfi_def_cfa_offset 16
	.cfi_offset 6, -16
	movq	%rsp, %rbp
	.cfi_def_cfa_register 6
	movl	%edi, -4(%rbp)
	movl	%esi, -8(%rbp)
	.loc 1 7 12
	movl	-4(%rbp), %eax
	subl	-8(%rbp), %eax
	.loc 1 8 1
	popq	%rbp
	.cfi_def_cfa 7, 8
	ret
	.cfi_endproc
.LFE1:
	.size	sub, .-sub
	.globl	mul
	.type	mul, @function
mul:
.LFB2:
	.loc 1 10 23
	.cfi_startproc
	endbr64
	pushq	%rbp
	.cfi_def_cfa_offset 16
	.cfi_offset 6, -16
	movq	%rsp, %rbp
	.cfi_def_cfa_register 6
	movl	%edi, -4(%rbp)
	movl	%esi, -8(%rbp)
	.loc 1 11 12
	movl	-4(%rbp), %eax
	imull	-8(%rbp), %eax
	.loc 1 12 1
	popq	%rbp
	.cfi_def_cfa 7, 8
	ret
	.cfi_endproc
.LFE2:
	.size	mul, .-mul
	.globl	div
	.type	div, @function
div:
.LFB3:
	.loc 1 14 23
	.cfi_startproc
	endbr64
	pushq	%rbp
	.cfi_def_cfa_offset 16
	.cfi_offset 6, -16
	movq	%rsp, %rbp
	.cfi_def_cfa_register 6
	movl	%edi, -4(%rbp)
	movl	%esi, -8(%rbp)
	.loc 1 15 12
	movl	-4(%rbp), %eax
	cltd
	idivl	-8(%rbp)
	.loc 1 16 1
	popq	%rbp
	.cfi_def_cfa 7, 8
	ret
	.cfi_endproc
.LFE3:
	.size	div, .-div
	.globl	usub
	.type	usub, @function
usub:
.LFB4:
	.loc 1 18 42
	.cfi_startproc
	endbr64
	pushq	%rbp
	.cfi_def_cfa_offset 16
	.cfi_offset 6, -16
	movq	%rsp, %rbp
	.cfi_def_cfa_register 6
	movl	%edi, -4(%rbp)
	movl	%esi, -8(%rbp)
	.loc 1 19 12
	movl	-4(%rbp), %eax
	subl	-8(%rbp), %eax
	.loc 1 20 1
	popq	%rbp
	.cfi_def_cfa 7, 8
	ret
	.cfi_endproc
.LFE4:
	.size	usub, .-usub
	.globl	umul
	.type	umul, @function
umul:
.LFB5:
	.loc 1 22 42
	.cfi_startproc
	endbr64
	pushq	%rbp
	.cfi_def_cfa_offset 16
	.cfi_offset 6, -16
	movq	%rsp, %rbp
	.cfi_def_cfa_register 6
	movl	%edi, -4(%rbp)
	movl	%esi, -8(%rbp)
	.loc 1 23 12
	movl	-4(%rbp), %eax
	imull	-8(%rbp), %eax
	.loc 1 24 1
	popq	%rbp
	.cfi_def_cfa 7, 8
	ret
	.cfi_endproc
.LFE5:
	.size	umul, .-umul
	.globl	uadd
	.type	uadd, @function
uadd:
.LFB6:
	.loc 1 26 42
	.cfi_startproc
	endbr64
	pushq	%rbp
	.cfi_def_cfa_offset 16
	.cfi_offset 6, -16
	movq	%rsp, %rbp
	.cfi_def_cfa_register 6
	movl	%edi, -4(%rbp)
	movl	%esi, -8(%rbp)
	.loc 1 27 12
	movl	-4(%rbp), %edx
	movl	-8(%rbp), %eax
	addl	%edx, %eax
	.loc 1 28 1
	popq	%rbp
	.cfi_def_cfa 7, 8
	ret
	.cfi_endproc
.LFE6:
	.size	uadd, .-uadd
	.globl	udiv
	.type	udiv, @function
udiv:
.LFB7:
	.loc 1 30 42
	.cfi_startproc
	endbr64
	pushq	%rbp
	.cfi_def_cfa_offset 16
	.cfi_offset 6, -16
	movq	%rsp, %rbp
	.cfi_def_cfa_register 6
	movl	%edi, -4(%rbp)
	movl	%esi, -8(%rbp)
	.loc 1 31 12
	movl	-4(%rbp), %eax
	movl	$0, %edx
	divl	-8(%rbp)
	.loc 1 32 1
	popq	%rbp
	.cfi_def_cfa 7, 8
	ret
	.cfi_endproc
.LFE7:
	.size	udiv, .-udiv
.Letext0:
	.section	.note.GNU-stack,"",@progbits
	.section	.note.gnu.property,"a"
	.align 8
	.long	1f - 0f
	.long	4f - 1f
	.long	5
0:
	.string	"GNU"
1:
	.align 8
	.long	0xc0000002
	.long	3f - 2f
2:
	.long	0x3
3:
	.align 8
4:
